target datalayout = "e-m:e-p270:32:32-p271:32:32-p272:64:64-i64:64-i128:128-f80:128-n8:16:32:64-S128"
target triple = "x86_64-pc-linux-gnu"

%struct.slurm_conf_t = type { i64, ptr, i16, ptr, ptr, ptr, ptr, ptr, i16, ptr, ptr, ptr, ptr, ptr, ptr, ptr, i16, ptr, ptr, ptr, ptr, i16, ptr, ptr, ptr, i64, ptr, ptr, ptr, ptr, i16, ptr, ptr, i16, i32, ptr, i32, ptr, i32, i32, ptr, ptr, i64, i64, ptr, i16, i16, ptr, i32, i32, ptr, i32, ptr, i32, i16, i16, i16, ptr, i16, i16, ptr, ptr, i32, i16, i16, ptr, i32, i16, ptr, ptr, ptr, ptr, i16, ptr, ptr, ptr, ptr, i32, ptr, ptr, ptr, ptr, i16, i16, ptr, i32, i32, i32, i16, i16, ptr, ptr, i16, ptr, ptr, i32, i32, i32, i32, i32, i64, i32, i32, i16, ptr, ptr, i32, ptr, ptr, ptr, i16, i32, ptr, ptr, i16, ptr, ptr, i32, i16, ptr, ptr, ptr, ptr, i32, i32, i16, i16, i32, ptr, i16, ptr, i32, i32, i32, i32, i32, i32, ptr, i16, ptr, ptr, i32, i16, ptr, i32, i16, i16, ptr, ptr, ptr, i16, ptr, ptr, ptr, ptr, i16, i16, ptr, i16, ptr, i16, ptr, i16, ptr, i16, ptr, ptr, ptr, ptr, i16, ptr, ptr, ptr, i32, ptr, i32, ptr, ptr, i16, ptr, ptr, i32, i16, ptr, ptr, i16, i16, ptr, i16, ptr, ptr, ptr, i32, ptr, i16, i16, ptr, ptr, ptr, ptr, ptr, ptr, ptr, ptr, i16, i32, i16, ptr, ptr, ptr, ptr, i32, ptr, ptr, ptr, i16, ptr, ptr, ptr, i16, ptr, i16, ptr, i16, i16, ptr }

@exit_code = dso_local global i32 0, align 4
@quiet_flag = dso_local global i32 0, align 4
@mime_type = dso_local global ptr null, align 8
@old_slurm_ctl_conf_ptr = dso_local global ptr null, align 8
@stdout = external global ptr, align 8
@.str.86 = private unnamed_addr constant [2 x i8] c"\0A\00", align 1
@.str.208 = private unnamed_addr constant [39 x i8] c"slurm_load_ctl_conf no change in data\0A\00", align 1
@.str.209 = private unnamed_addr constant [26 x i8] c"slurm_load_ctl_conf error\00", align 1

; Function Attrs: nounwind uwtable
define internal void @_print_config(ptr noundef %0, i32 noundef %1, ptr noundef %2) #0 {
  %4 = alloca ptr, align 8
  %5 = alloca i32, align 4
  %6 = alloca ptr, align 8
  %7 = alloca i32, align 4
  %8 = alloca ptr, align 8
  store ptr %0, ptr %4, align 8
  store i32 %1, ptr %5, align 4
  store ptr %2, ptr %6, align 8
  call void @llvm.lifetime.start.p0(i64 4, ptr %7) #12
  call void @llvm.lifetime.start.p0(i64 8, ptr %8) #12
  store ptr null, ptr %8, align 8
  store ptr null, ptr @mime_type, align 8
  %9 = load ptr, ptr @old_slurm_ctl_conf_ptr, align 8
  %10 = icmp ne ptr %9, null
  br i1 %10, label %11, label %33

11:                                               ; preds = %3
  %12 = load ptr, ptr @old_slurm_ctl_conf_ptr, align 8
  %13 = getelementptr inbounds nuw %struct.slurm_conf_t, ptr %12, i32 0, i32 0
  %14 = load i64, ptr %13, align 8
  %15 = call i32 @slurm_load_ctl_conf(i64 noundef %14, ptr noundef %8)
  store i32 %15, ptr %7, align 4
  %16 = load i32, ptr %7, align 4
  %17 = icmp eq i32 %16, 0
  br i1 %17, label %18, label %20

18:                                               ; preds = %11
  %19 = load ptr, ptr @old_slurm_ctl_conf_ptr, align 8
  call void @slurm_free_ctl_conf(ptr noundef %19)
  br label %32

20:                                               ; preds = %11
  %21 = call ptr @__errno_location() #16
  %22 = load i32, ptr %21, align 4
  %23 = icmp eq i32 %22, 1900
  br i1 %23, label %24, label %31

24:                                               ; preds = %20
  %25 = load ptr, ptr @old_slurm_ctl_conf_ptr, align 8
  store ptr %25, ptr %8, align 8
  store i32 0, ptr %7, align 4
  %26 = load i32, ptr @quiet_flag, align 4
  %27 = icmp eq i32 %26, -1
  br i1 %27, label %28, label %30

28:                                               ; preds = %24
  %29 = call i32 (ptr, ...) @printf(ptr noundef @.str.208)
  br label %30

30:                                               ; preds = %28, %24
  br label %31

31:                                               ; preds = %30, %20
  br label %32

32:                                               ; preds = %31, %18
  br label %35

33:                                               ; preds = %3
  %34 = call i32 @slurm_load_ctl_conf(i64 noundef 0, ptr noundef %8)
  store i32 %34, ptr %7, align 4
  br label %35

35:                                               ; preds = %33, %32
  %36 = load i32, ptr %7, align 4
  %37 = icmp ne i32 %36, 0
  br i1 %37, label %38, label %43

38:                                               ; preds = %35
  store i32 1, ptr @exit_code, align 4
  %39 = load i32, ptr @quiet_flag, align 4
  %40 = icmp ne i32 %39, 1
  br i1 %40, label %41, label %42

41:                                               ; preds = %38
  call void @slurm_perror(ptr noundef @.str.209)
  br label %42

42:                                               ; preds = %41, %38
  br label %45

43:                                               ; preds = %35
  %44 = load ptr, ptr %8, align 8
  store ptr %44, ptr @old_slurm_ctl_conf_ptr, align 8
  br label %45

45:                                               ; preds = %43, %42
  %46 = load i32, ptr %7, align 4
  %47 = icmp eq i32 %46, 0
  br i1 %47, label %48, label %53

48:                                               ; preds = %45
  %49 = load ptr, ptr @stdout, align 8
  %50 = load ptr, ptr %8, align 8
  call void @slurm_print_ctl_conf(ptr noundef %49, ptr noundef %50)
  %51 = load ptr, ptr @stdout, align 8
  %52 = call i32 (ptr, ptr, ...) @fprintf(ptr noundef %51, ptr noundef @.str.86) #12
  br label %53

53:                                               ; preds = %48, %45
  %54 = load ptr, ptr %8, align 8
  %55 = icmp ne ptr %54, null
  br i1 %55, label %56, label %59

56:                                               ; preds = %53
  %57 = load i32, ptr %5, align 4
  %58 = load ptr, ptr %6, align 8
  call void @_print_ping(i32 noundef %57, ptr noundef %58)
  br label %59

59:                                               ; preds = %56, %53
  call void @llvm.lifetime.end.p0(i64 8, ptr %8) #12
  call void @llvm.lifetime.end.p0(i64 4, ptr %7) #12
  ret void
}