; Function Attrs: nounwind uwtable
define internal fastcc void @_print_config(i32 noundef range(i32 2, -2147483648) %0, ptr noundef %1) unnamed_addr #8 {
  %3 = alloca ptr, align 8
  call void @llvm.lifetime.start.p0(i64 8, ptr nonnull %3) #18
  store ptr null, ptr %3, align 8
  store ptr null, ptr @mime_type, align 8
  %4 = load ptr, ptr @old_slurm_ctl_conf_ptr, align 8
  %.not = icmp eq ptr %4, null
  br i1 %.not, label %20, label %5

5:                                                ; preds = %2
  %6 = load i64, ptr %4, align 8
  %7 = call i32 @slurm_load_ctl_conf(i64 noundef %6, ptr noundef nonnull %3) #18
  %8 = icmp eq i32 %7, 0
  br i1 %8, label %9, label %11

9:                                                ; preds = %5
  %10 = load ptr, ptr @old_slurm_ctl_conf_ptr, align 8
  call void @slurm_free_ctl_conf(ptr noundef %10) #18
  br label %.thread

11:                                               ; preds = %5
  %12 = tail call ptr @__errno_location() #24
  %13 = load i32, ptr %12, align 4
  %14 = icmp eq i32 %13, 1900
  br i1 %14, label %15, label %.thread4

15:                                               ; preds = %11
  %16 = load ptr, ptr @old_slurm_ctl_conf_ptr, align 8
  store ptr %16, ptr %3, align 8
  %17 = load i32, ptr @quiet_flag, align 4
  %18 = icmp eq i32 %17, -1
  br i1 %18, label %19, label %.thread

19:                                               ; preds = %15
  %puts = call i32 @puts(ptr nonnull dereferenceable(1) @str.1)
  br label %.thread

20:                                               ; preds = %2
  %21 = call i32 @slurm_load_ctl_conf(i64 noundef 0, ptr noundef nonnull %3) #18
  %22 = icmp eq i32 %21, 0
  br i1 %22, label %.thread, label %.thread4

.thread4:                                         ; preds = %11, %20
  store i32 1, ptr @exit_code, align 4
  %23 = load i32, ptr @quiet_flag, align 4
  %.not7 = icmp eq i32 %23, 1
  br i1 %.not7, label %.thread8, label %24

24:                                               ; preds = %.thread4
  call void @slurm_perror(ptr noundef nonnull @.str.209) #18
  br label %.thread8

.thread:                                          ; preds = %15, %19, %9, %20
  %25 = load ptr, ptr %3, align 8
  store ptr %25, ptr @old_slurm_ctl_conf_ptr, align 8
  %26 = load ptr, ptr @stdout, align 8
  call void @slurm_print_ctl_conf(ptr noundef %26, ptr noundef %25) #18
  %27 = load ptr, ptr @stdout, align 8
  %fputc = call i32 @fputc(i32 10, ptr %27)
  br label %.thread8

.thread8:                                         ; preds = %24, %.thread4, %.thread
  %28 = load ptr, ptr %3, align 8
  %.not8 = icmp eq ptr %28, null
  br i1 %.not8, label %30, label %29

29:                                               ; preds = %.thread8
  call fastcc void @_print_ping(i32 noundef %0, ptr noundef %1)
  br label %30

30:                                               ; preds = %29, %.thread8
  call void @llvm.lifetime.end.p0(i64 8, ptr nonnull %3) #18
  ret void
}